target datalayout = "e-m:e-p270:32:32-p271:32:32-p272:64:64-i64:64-i128:128-f80:128-n8:16:32:64-S128"
target triple = "x86_64-pc-linux-gnu"

%struct._cmstransform_struct = type { i32, i32, ptr, ptr, ptr, ptr, ptr, %struct._cmsCACHE, ptr, ptr, ptr, ptr, i32, i32, %struct.cmsCIEXYZ, %struct.cmsCIEXYZ, ptr, i32, double, i32, ptr, ptr, ptr, ptr, ptr, i32, i32 }
%struct._cmsCACHE = type { [16 x i16], [16 x i16] }
%struct.cmsCIEXYZ = type { double, double, double }

; Function Attrs: nounwind uwtable
define internal i32 @_cmsToFixedDomain(i32 noundef %0) #0 {
  %2 = alloca i32, align 4
  store i32 %0, ptr %2, align 4
  %3 = load i32, ptr %2, align 4
  %4 = load i32, ptr %2, align 4
  %5 = add nsw i32 %4, 32767
  %6 = sdiv i32 %5, 65535
  %7 = add nsw i32 %3, %6
  ret i32 %7
}

; Function Attrs: nounwind uwtable
define internal ptr @PackPlanarWords(ptr noundef %0, ptr noundef %1, ptr noundef %2, i32 noundef %3) #0 {
  %5 = alloca ptr, align 8
  %6 = alloca ptr, align 8
  %7 = alloca ptr, align 8
  %8 = alloca i32, align 4
  %9 = alloca i32, align 4
  %10 = alloca i32, align 4
  %11 = alloca i32, align 4
  %12 = alloca i32, align 4
  %13 = alloca i32, align 4
  %14 = alloca i32, align 4
  %15 = alloca i32, align 4
  %16 = alloca i32, align 4
  %17 = alloca i32, align 4
  %18 = alloca ptr, align 8
  %19 = alloca i16, align 2
  %20 = alloca i32, align 4
  %21 = alloca i32, align 4
  store ptr %0, ptr %5, align 8
  store ptr %1, ptr %6, align 8
  store ptr %2, ptr %7, align 8
  store i32 %3, ptr %8, align 4
  %22 = load ptr, ptr %5, align 8
  %23 = getelementptr inbounds %struct._cmstransform_struct, ptr %22, i32 0, i32 1
  %24 = load i32, ptr %23, align 4
  %25 = lshr i32 %24, 3
  %26 = and i32 %25, 15
  store i32 %26, ptr %9, align 4
  %27 = load ptr, ptr %5, align 8
  %28 = getelementptr inbounds %struct._cmstransform_struct, ptr %27, i32 0, i32 1
  %29 = load i32, ptr %28, align 4
  %30 = lshr i32 %29, 10
  %31 = and i32 %30, 1
  store i32 %31, ptr %10, align 4
  %32 = load ptr, ptr %5, align 8
  %33 = getelementptr inbounds %struct._cmstransform_struct, ptr %32, i32 0, i32 1
  %34 = load i32, ptr %33, align 4
  %35 = lshr i32 %34, 14
  %36 = and i32 %35, 1
  store i32 %36, ptr %11, align 4
  %37 = load ptr, ptr %5, align 8
  %38 = getelementptr inbounds %struct._cmstransform_struct, ptr %37, i32 0, i32 1
  %39 = load i32, ptr %38, align 4
  %40 = lshr i32 %39, 13
  %41 = and i32 %40, 1
  store i32 %41, ptr %12, align 4
  %42 = load ptr, ptr %5, align 8
  %43 = getelementptr inbounds %struct._cmstransform_struct, ptr %42, i32 0, i32 1
  %44 = load i32, ptr %43, align 4
  %45 = lshr i32 %44, 7
  %46 = and i32 %45, 7
  store i32 %46, ptr %13, align 4
  %47 = load i32, ptr %10, align 4
  %48 = load i32, ptr %11, align 4
  %49 = xor i32 %47, %48
  store i32 %49, ptr %14, align 4
  %50 = load ptr, ptr %5, align 8
  %51 = getelementptr inbounds %struct._cmstransform_struct, ptr %50, i32 0, i32 1
  %52 = load i32, ptr %51, align 4
  %53 = lshr i32 %52, 23
  %54 = and i32 %53, 1
  store i32 %54, ptr %15, align 4
  %55 = load ptr, ptr %5, align 8
  %56 = getelementptr inbounds %struct._cmstransform_struct, ptr %55, i32 0, i32 1
  %57 = load i32, ptr %56, align 4
  %58 = lshr i32 %57, 11
  %59 = and i32 %58, 1
  store i32 %59, ptr %16, align 4
  %60 = load ptr, ptr %7, align 8
  store ptr %60, ptr %18, align 8
  store i32 0, ptr %20, align 4
  %61 = load i32, ptr %14, align 4
  %62 = icmp ne i32 %61, 0
  br i1 %62, label %63, label %82

63:                                               ; preds = %4
  %64 = load i32, ptr %15, align 4
  %65 = icmp ne i32 %64, 0
  br i1 %65, label %66, label %75

66:                                               ; preds = %63
  %67 = load i32, ptr %13, align 4
  %68 = icmp ne i32 %67, 0
  br i1 %68, label %69, label %75

69:                                               ; preds = %66
  %70 = load ptr, ptr %7, align 8
  %71 = getelementptr inbounds i16, ptr %70, i64 0
  %72 = load i16, ptr %71, align 2
  %73 = zext i16 %72 to i32
  %74 = call i32 @_cmsToFixedDomain(i32 noundef %73)
  store i32 %74, ptr %20, align 4
  br label %75

75:                                               ; preds = %69, %66, %63
  %76 = load i32, ptr %13, align 4
  %77 = load i32, ptr %8, align 4
  %78 = mul i32 %76, %77
  %79 = load ptr, ptr %7, align 8
  %80 = zext i32 %78 to i64
  %81 = getelementptr inbounds i8, ptr %79, i64 %80
  store ptr %81, ptr %7, align 8
  br label %99

82:                                               ; preds = %4
  %83 = load i32, ptr %15, align 4
  %84 = icmp ne i32 %83, 0
  br i1 %84, label %85, label %98

85:                                               ; preds = %82
  %86 = load i32, ptr %13, align 4
  %87 = icmp ne i32 %86, 0
  br i1 %87, label %88, label %98

88:                                               ; preds = %85
  %89 = load ptr, ptr %7, align 8
  %90 = load i32, ptr %9, align 4
  %91 = load i32, ptr %8, align 4
  %92 = mul i32 %90, %91
  %93 = zext i32 %92 to i64
  %94 = getelementptr inbounds i16, ptr %89, i64 %93
  %95 = load i16, ptr %94, align 2
  %96 = zext i16 %95 to i32
  %97 = call i32 @_cmsToFixedDomain(i32 noundef %96)
  store i32 %97, ptr %20, align 4
  br label %98

98:                                               ; preds = %88, %85, %82
  br label %99

99:                                               ; preds = %98, %75
  store i32 0, ptr %17, align 4
  br label %100

100:                                              ; preds = %160, %99
  %101 = load i32, ptr %17, align 4
  %102 = load i32, ptr %9, align 4
  %103 = icmp ult i32 %101, %102
  br i1 %103, label %104, label %163

104:                                              ; preds = %100
  %105 = load i32, ptr %10, align 4
  %106 = icmp ne i32 %105, 0
  br i1 %106, label %107, label %112

107:                                              ; preds = %104
  %108 = load i32, ptr %9, align 4
  %109 = load i32, ptr %17, align 4
  %110 = sub i32 %108, %109
  %111 = sub i32 %110, 1
  br label %114

112:                                              ; preds = %104
  %113 = load i32, ptr %17, align 4
  br label %114

114:                                              ; preds = %112, %107
  %115 = phi i32 [ %111, %107 ], [ %113, %112 ]
  store i32 %115, ptr %21, align 4
  %116 = load ptr, ptr %6, align 8
  %117 = load i32, ptr %21, align 4
  %118 = zext i32 %117 to i64
  %119 = getelementptr inbounds i16, ptr %116, i64 %118
  %120 = load i16, ptr %119, align 2
  store i16 %120, ptr %19, align 2
  %121 = load i32, ptr %16, align 4
  %122 = icmp ne i32 %121, 0
  br i1 %122, label %123, label %134

123:                                              ; preds = %114
  %124 = load i16, ptr %19, align 2
  %125 = zext i16 %124 to i32
  %126 = shl i32 %125, 8
  %127 = trunc i32 %126 to i16
  %128 = zext i16 %127 to i32
  %129 = load i16, ptr %19, align 2
  %130 = zext i16 %129 to i32
  %131 = ashr i32 %130, 8
  %132 = or i32 %128, %131
  %133 = trunc i32 %132 to i16
  store i16 %133, ptr %19, align 2
  br label %134

134:                                              ; preds = %123, %114
  %135 = load i32, ptr %12, align 4
  %136 = icmp ne i32 %135, 0
  br i1 %136, label %137, label %142

137:                                              ; preds = %134
  %138 = load i16, ptr %19, align 2
  %139 = zext i16 %138 to i32
  %140 = sub nsw i32 65535, %139
  %141 = trunc i32 %140 to i16
  store i16 %141, ptr %19, align 2
  br label %142

142:                                              ; preds = %137, %134
  %143 = load i32, ptr %15, align 4
  %144 = icmp ne i32 %143, 0
  br i1 %144, label %145, label %153

145:                                              ; preds = %142
  %146 = load i16, ptr %19, align 2
  %147 = zext i16 %146 to i32
  %148 = load i32, ptr %20, align 4
  %149 = mul i32 %147, %148
  %150 = add i32 %149, 32768
  %151 = lshr i32 %150, 16
  %152 = trunc i32 %151 to i16
  store i16 %152, ptr %19, align 2
  br label %153

153:                                              ; preds = %145, %142
  %154 = load i16, ptr %19, align 2
  %155 = load ptr, ptr %7, align 8
  store i16 %154, ptr %155, align 2
  %156 = load i32, ptr %8, align 4
  %157 = load ptr, ptr %7, align 8
  %158 = zext i32 %156 to i64
  %159 = getelementptr inbounds i8, ptr %157, i64 %158
  store ptr %159, ptr %7, align 8
  br label %160

160:                                              ; preds = %153
  %161 = load i32, ptr %17, align 4
  %162 = add i32 %161, 1
  store i32 %162, ptr %17, align 4
  br label %100, !llvm.loop !30

163:                                              ; preds = %100
  %164 = load ptr, ptr %18, align 8
  %165 = getelementptr inbounds i8, ptr %164, i64 2
  ret ptr %165
}