; Function Attrs: nofree norecurse nosync nounwind memory(write, argmem: readwrite, inaccessiblemem: none) uwtable
define internal nonnull ptr @PackPlanarWords(ptr nocapture noundef readonly %0, ptr nocapture noundef readonly %1, ptr noundef %2, i32 noundef %3) #8 {
  %5 = getelementptr inbounds i8, ptr %0, i64 4
  %6 = load i32, ptr %5, align 4
  %.fr82 = freeze i32 %6
  %7 = lshr i32 %.fr82, 3
  %8 = and i32 %7, 15
  %9 = lshr i32 %.fr82, 10
  %10 = lshr i32 %.fr82, 14
  %11 = lshr i32 %.fr82, 7
  %12 = and i32 %11, 7
  %13 = xor i32 %9, %10
  %14 = and i32 %13, 1
  %15 = lshr i32 %.fr82, 23
  %16 = and i32 %15, 1
  %.not = icmp eq i32 %14, 0
  %17 = icmp ne i32 %16, 0
  %18 = icmp ne i32 %12, 0
  %or.cond3 = and i1 %17, %18
  br i1 %.not, label %29, label %19

19:                                               ; preds = %4
  br i1 %or.cond3, label %20, label %25

20:                                               ; preds = %19
  %21 = load i16, ptr %2, align 2
  %22 = zext i16 %21 to i32
  %.lobit = lshr i16 %21, 15
  %23 = zext nneg i16 %.lobit to i32
  %24 = add nuw nsw i32 %23, %22
  br label %25

25:                                               ; preds = %20, %19
  %.046 = phi i32 [ %24, %20 ], [ 0, %19 ]
  %26 = mul i32 %12, %3
  %27 = zext i32 %26 to i64
  %28 = getelementptr inbounds i8, ptr %2, i64 %27
  br label %38

29:                                               ; preds = %4
  br i1 %or.cond3, label %30, label %38

30:                                               ; preds = %29
  %31 = mul i32 %8, %3
  %32 = zext i32 %31 to i64
  %33 = getelementptr inbounds i16, ptr %2, i64 %32
  %34 = load i16, ptr %33, align 2
  %35 = zext i16 %34 to i32
  %.lobit57 = lshr i16 %34, 15
  %36 = zext nneg i16 %.lobit57 to i32
  %37 = add nuw nsw i32 %36, %35
  br label %38

38:                                               ; preds = %29, %30, %25
  %.147 = phi i32 [ %.046, %25 ], [ %37, %30 ], [ 0, %29 ]
  %.0 = phi ptr [ %28, %25 ], [ %2, %30 ], [ %2, %29 ]
  %.not81 = icmp eq i32 %8, 0
  br i1 %.not81, label %._crit_edge, label %.lr.ph

.lr.ph:                                           ; preds = %38
  %39 = and i32 %.fr82, 1024
  %.not52 = icmp eq i32 %39, 0
  %40 = and i32 %.fr82, 2048
  %.not53 = icmp eq i32 %40, 0
  %41 = shl i32 %.fr82, 18
  %sext = ashr i32 %41, 31
  %42 = trunc nsw i32 %sext to i16
  %.not55 = icmp eq i32 %16, 0
  %43 = zext i32 %3 to i64
  %wide.trip.count124 = zext nneg i32 %8 to i64
  br i1 %.not52, label %.lr.ph.split.us, label %.lr.ph.split

.lr.ph.split.us:                                  ; preds = %.lr.ph
  br i1 %.not53, label %.lr.ph.split.us.split.us, label %.lr.ph.split.us.split

.lr.ph.split.us.split.us:                         ; preds = %.lr.ph.split.us
  br i1 %.not55, label %.lr.ph.split.us.split.us.split.us, label %.lr.ph.split.us.split.us.split

.lr.ph.split.us.split.us.split.us:                ; preds = %.lr.ph.split.us.split.us, %.lr.ph.split.us.split.us.split.us
  %indvars.iv121 = phi i64 [ %indvars.iv.next122, %.lr.ph.split.us.split.us.split.us ], [ 0, %.lr.ph.split.us.split.us ]
  %.159.us.us.us = phi ptr [ %46, %.lr.ph.split.us.split.us.split.us ], [ %.0, %.lr.ph.split.us.split.us ]
  %44 = getelementptr inbounds i16, ptr %1, i64 %indvars.iv121
  %45 = load i16, ptr %44, align 2
  %.149.us.us.us = xor i16 %45, %42
  store i16 %.149.us.us.us, ptr %.159.us.us.us, align 2
  %46 = getelementptr inbounds i8, ptr %.159.us.us.us, i64 %43
  %indvars.iv.next122 = add nuw nsw i64 %indvars.iv121, 1
  %exitcond125.not = icmp eq i64 %indvars.iv.next122, %wide.trip.count124
  br i1 %exitcond125.not, label %._crit_edge, label %.lr.ph.split.us.split.us.split.us, !llvm.loop !30

.lr.ph.split.us.split.us.split:                   ; preds = %.lr.ph.split.us.split.us, %.lr.ph.split.us.split.us.split
  %indvars.iv116 = phi i64 [ %indvars.iv.next117, %.lr.ph.split.us.split.us.split ], [ 0, %.lr.ph.split.us.split.us ]
  %.159.us.us = phi ptr [ %54, %.lr.ph.split.us.split.us.split ], [ %.0, %.lr.ph.split.us.split.us ]
  %47 = getelementptr inbounds i16, ptr %1, i64 %indvars.iv116
  %48 = load i16, ptr %47, align 2
  %.149.us.us = xor i16 %48, %42
  %49 = zext i16 %.149.us.us to i32
  %50 = mul nuw i32 %.147, %49
  %51 = add nuw i32 %50, 32768
  %52 = lshr i32 %51, 16
  %53 = trunc nuw i32 %52 to i16
  store i16 %53, ptr %.159.us.us, align 2
  %54 = getelementptr inbounds i8, ptr %.159.us.us, i64 %43
  %indvars.iv.next117 = add nuw nsw i64 %indvars.iv116, 1
  %exitcond120.not = icmp eq i64 %indvars.iv.next117, %wide.trip.count124
  br i1 %exitcond120.not, label %._crit_edge, label %.lr.ph.split.us.split.us.split, !llvm.loop !30

.lr.ph.split.us.split:                            ; preds = %.lr.ph.split.us
  br i1 %.not55, label %.lr.ph.split.us.split.split.us, label %.lr.ph.split.us.split.split

.lr.ph.split.us.split.split.us:                   ; preds = %.lr.ph.split.us.split, %.lr.ph.split.us.split.split.us
  %indvars.iv111 = phi i64 [ %indvars.iv.next112, %.lr.ph.split.us.split.split.us ], [ 0, %.lr.ph.split.us.split ]
  %.159.us.us74 = phi ptr [ %57, %.lr.ph.split.us.split.split.us ], [ %.0, %.lr.ph.split.us.split ]
  %55 = getelementptr inbounds i16, ptr %1, i64 %indvars.iv111
  %56 = load i16, ptr %55, align 2
  %rev.us.us76 = tail call i16 @llvm.bswap.i16(i16 %56)
  %.149.us.us77 = xor i16 %rev.us.us76, %42
  store i16 %.149.us.us77, ptr %.159.us.us74, align 2
  %57 = getelementptr inbounds i8, ptr %.159.us.us74, i64 %43
  %indvars.iv.next112 = add nuw nsw i64 %indvars.iv111, 1
  %exitcond115.not = icmp eq i64 %indvars.iv.next112, %wide.trip.count124
  br i1 %exitcond115.not, label %._crit_edge, label %.lr.ph.split.us.split.split.us, !llvm.loop !30

.lr.ph.split.us.split.split:                      ; preds = %.lr.ph.split.us.split, %.lr.ph.split.us.split.split
  %indvars.iv106 = phi i64 [ %indvars.iv.next107, %.lr.ph.split.us.split.split ], [ 0, %.lr.ph.split.us.split ]
  %.159.us = phi ptr [ %65, %.lr.ph.split.us.split.split ], [ %.0, %.lr.ph.split.us.split ]
  %58 = getelementptr inbounds i16, ptr %1, i64 %indvars.iv106
  %59 = load i16, ptr %58, align 2
  %rev.us = tail call i16 @llvm.bswap.i16(i16 %59)
  %.149.us = xor i16 %rev.us, %42
  %60 = zext i16 %.149.us to i32
  %61 = mul nuw i32 %.147, %60
  %62 = add nuw i32 %61, 32768
  %63 = lshr i32 %62, 16
  %64 = trunc nuw i32 %63 to i16
  store i16 %64, ptr %.159.us, align 2
  %65 = getelementptr inbounds i8, ptr %.159.us, i64 %43
  %indvars.iv.next107 = add nuw nsw i64 %indvars.iv106, 1
  %exitcond110.not = icmp eq i64 %indvars.iv.next107, %wide.trip.count124
  br i1 %exitcond110.not, label %._crit_edge, label %.lr.ph.split.us.split.split, !llvm.loop !30

.lr.ph.split:                                     ; preds = %.lr.ph
  br i1 %.not53, label %.lr.ph.split.split.us, label %.lr.ph.split.split

.lr.ph.split.split.us:                            ; preds = %.lr.ph.split
  br i1 %.not55, label %.lr.ph.split.split.us.split.us, label %.lr.ph.split.split.us.split

.lr.ph.split.split.us.split.us:                   ; preds = %.lr.ph.split.split.us, %.lr.ph.split.split.us.split.us
  %indvars.iv101 = phi i64 [ %indvars.iv.next102, %.lr.ph.split.split.us.split.us ], [ 0, %.lr.ph.split.split.us ]
  %.159.us60.us = phi ptr [ %72, %.lr.ph.split.split.us.split.us ], [ %.0, %.lr.ph.split.split.us ]
  %66 = trunc nuw nsw i64 %indvars.iv101 to i32
  %67 = xor i32 %66, -1
  %68 = add nsw i32 %8, %67
  %69 = zext i32 %68 to i64
  %70 = getelementptr inbounds i16, ptr %1, i64 %69
  %71 = load i16, ptr %70, align 2
  %.149.us64.us = xor i16 %71, %42
  store i16 %.149.us64.us, ptr %.159.us60.us, align 2
  %72 = getelementptr inbounds i8, ptr %.159.us60.us, i64 %43
  %indvars.iv.next102 = add nuw nsw i64 %indvars.iv101, 1
  %exitcond105.not = icmp eq i64 %indvars.iv.next102, %wide.trip.count124
  br i1 %exitcond105.not, label %._crit_edge, label %.lr.ph.split.split.us.split.us, !llvm.loop !30

.lr.ph.split.split.us.split:                      ; preds = %.lr.ph.split.split.us, %.lr.ph.split.split.us.split
  %indvars.iv96 = phi i64 [ %indvars.iv.next97, %.lr.ph.split.split.us.split ], [ 0, %.lr.ph.split.split.us ]
  %.159.us60 = phi ptr [ %84, %.lr.ph.split.split.us.split ], [ %.0, %.lr.ph.split.split.us ]
  %73 = trunc nuw nsw i64 %indvars.iv96 to i32
  %74 = xor i32 %73, -1
  %75 = add nsw i32 %8, %74
  %76 = zext i32 %75 to i64
  %77 = getelementptr inbounds i16, ptr %1, i64 %76
  %78 = load i16, ptr %77, align 2
  %.149.us64 = xor i16 %78, %42
  %79 = zext i16 %.149.us64 to i32
  %80 = mul nuw i32 %.147, %79
  %81 = add nuw i32 %80, 32768
  %82 = lshr i32 %81, 16
  %83 = trunc nuw i32 %82 to i16
  store i16 %83, ptr %.159.us60, align 2
  %84 = getelementptr inbounds i8, ptr %.159.us60, i64 %43
  %indvars.iv.next97 = add nuw nsw i64 %indvars.iv96, 1
  %exitcond100.not = icmp eq i64 %indvars.iv.next97, %wide.trip.count124
  br i1 %exitcond100.not, label %._crit_edge, label %.lr.ph.split.split.us.split, !llvm.loop !30

.lr.ph.split.split:                               ; preds = %.lr.ph.split
  br i1 %.not55, label %.lr.ph.split.split.split.us, label %.lr.ph.split.split.split

.lr.ph.split.split.split.us:                      ; preds = %.lr.ph.split.split, %.lr.ph.split.split.split.us
  %indvars.iv91 = phi i64 [ %indvars.iv.next92, %.lr.ph.split.split.split.us ], [ 0, %.lr.ph.split.split ]
  %.159.us66 = phi ptr [ %91, %.lr.ph.split.split.split.us ], [ %.0, %.lr.ph.split.split ]
  %85 = trunc nuw nsw i64 %indvars.iv91 to i32
  %86 = xor i32 %85, -1
  %87 = add nsw i32 %8, %86
  %88 = zext i32 %87 to i64
  %89 = getelementptr inbounds i16, ptr %1, i64 %88
  %90 = load i16, ptr %89, align 2
  %rev.us68 = tail call i16 @llvm.bswap.i16(i16 %90)
  %.149.us69 = xor i16 %rev.us68, %42
  store i16 %.149.us69, ptr %.159.us66, align 2
  %91 = getelementptr inbounds i8, ptr %.159.us66, i64 %43
  %indvars.iv.next92 = add nuw nsw i64 %indvars.iv91, 1
  %exitcond95.not = icmp eq i64 %indvars.iv.next92, %wide.trip.count124
  br i1 %exitcond95.not, label %._crit_edge, label %.lr.ph.split.split.split.us, !llvm.loop !30

.lr.ph.split.split.split:                         ; preds = %.lr.ph.split.split, %.lr.ph.split.split.split
  %indvars.iv = phi i64 [ %indvars.iv.next, %.lr.ph.split.split.split ], [ 0, %.lr.ph.split.split ]
  %.159 = phi ptr [ %103, %.lr.ph.split.split.split ], [ %.0, %.lr.ph.split.split ]
  %92 = trunc nuw nsw i64 %indvars.iv to i32
  %93 = xor i32 %92, -1
  %94 = add nsw i32 %8, %93
  %95 = zext i32 %94 to i64
  %96 = getelementptr inbounds i16, ptr %1, i64 %95
  %97 = load i16, ptr %96, align 2
  %rev = tail call i16 @llvm.bswap.i16(i16 %97)
  %.149 = xor i16 %rev, %42
  %98 = zext i16 %.149 to i32
  %99 = mul nuw i32 %.147, %98
  %100 = add nuw i32 %99, 32768
  %101 = lshr i32 %100, 16
  %102 = trunc nuw i32 %101 to i16
  store i16 %102, ptr %.159, align 2
  %103 = getelementptr inbounds i8, ptr %.159, i64 %43
  %indvars.iv.next = add nuw nsw i64 %indvars.iv, 1
  %exitcond.not = icmp eq i64 %indvars.iv.next, %wide.trip.count124
  br i1 %exitcond.not, label %._crit_edge, label %.lr.ph.split.split.split, !llvm.loop !30

._crit_edge:                                      ; preds = %.lr.ph.split.split.split, %.lr.ph.split.split.split.us, %.lr.ph.split.split.us.split, %.lr.ph.split.split.us.split.us, %.lr.ph.split.us.split.split, %.lr.ph.split.us.split.split.us, %.lr.ph.split.us.split.us.split, %.lr.ph.split.us.split.us.split.us, %38
  %104 = getelementptr inbounds i8, ptr %2, i64 2
  ret ptr %104
}